target datalayout = "e-m:e-p270:32:32-p271:32:32-p272:64:64-i64:64-i128:128-f80:128-n8:16:32:64-S128"
target triple = "x86_64-pc-linux-gnu"

%struct.termios = type { i32, i32, i32, i32, i8, [32 x i8], i32, i32 }

@.str.7 = private unnamed_addr constant [20 x i8] c"FAKETTY_WITH_PROMPT\00", align 1
@atexit_registered = internal global i32 0, align 4
@orig_termios = internal global %struct.termios zeroinitializer, align 4
@rawmode = internal global i32 0, align 4

; Function Attrs: nounwind uwtable
define internal i32 @enableRawMode(i32 noundef %0) #0 {
  %2 = alloca i32, align 4
  %3 = alloca i32, align 4
  %4 = alloca %struct.termios, align 4
  %5 = alloca i32, align 4
  store i32 %0, ptr %3, align 4, !tbaa !4
  %6 = call ptr @getenv(ptr noundef @.str.7) #12
  %7 = icmp ne ptr %6, null
  br i1 %7, label %8, label %9

8:                                                ; preds = %1
  store i32 0, ptr %2, align 4
  br label %48

9:                                                ; preds = %1
  call void @llvm.lifetime.start.p0(i64 60, ptr %4) #12
  %10 = call i32 @isatty(i32 noundef 0) #12
  %11 = icmp ne i32 %10, 0
  br i1 %11, label %13, label %12

12:                                               ; preds = %9
  br label %45

13:                                               ; preds = %9
  %14 = load i32, ptr @atexit_registered, align 4, !tbaa !4
  %15 = icmp ne i32 %14, 0
  br i1 %15, label %18, label %16

16:                                               ; preds = %13
  %17 = call i32 @atexit(ptr noundef @linenoiseAtExit) #12
  store i32 1, ptr @atexit_registered, align 4, !tbaa !4
  br label %18

18:                                               ; preds = %16, %13
  %19 = load i32, ptr %3, align 4, !tbaa !4
  %20 = call i32 @tcgetattr(i32 noundef %19, ptr noundef @orig_termios) #12
  %21 = icmp eq i32 %20, -1
  br i1 %21, label %22, label %23

22:                                               ; preds = %18
  br label %45

23:                                               ; preds = %18
  call void @llvm.memcpy.p0.p0.i64(ptr align 4 %4, ptr align 4 @orig_termios, i64 60, i1 false), !tbaa.struct !47
  %24 = getelementptr inbounds nuw %struct.termios, ptr %4, i32 0, i32 0
  %25 = load i32, ptr %24, align 4, !tbaa !48
  %26 = and i32 %25, -1331
  store i32 %26, ptr %24, align 4, !tbaa !48
  %27 = getelementptr inbounds nuw %struct.termios, ptr %4, i32 0, i32 1
  %28 = load i32, ptr %27, align 4, !tbaa !50
  %29 = and i32 %28, -2
  store i32 %29, ptr %27, align 4, !tbaa !50
  %30 = getelementptr inbounds nuw %struct.termios, ptr %4, i32 0, i32 2
  %31 = load i32, ptr %30, align 4, !tbaa !51
  %32 = or i32 %31, 48
  store i32 %32, ptr %30, align 4, !tbaa !51
  %33 = getelementptr inbounds nuw %struct.termios, ptr %4, i32 0, i32 3
  %34 = load i32, ptr %33, align 4, !tbaa !52
  %35 = and i32 %34, -32780
  store i32 %35, ptr %33, align 4, !tbaa !52
  %36 = getelementptr inbounds nuw %struct.termios, ptr %4, i32 0, i32 5
  %37 = getelementptr inbounds [32 x i8], ptr %36, i64 0, i64 6
  store i8 1, ptr %37, align 1, !tbaa !29
  %38 = getelementptr inbounds nuw %struct.termios, ptr %4, i32 0, i32 5
  %39 = getelementptr inbounds [32 x i8], ptr %38, i64 0, i64 5
  store i8 0, ptr %39, align 1, !tbaa !29
  %40 = load i32, ptr %3, align 4, !tbaa !4
  %41 = call i32 @tcsetattr(i32 noundef %40, i32 noundef 0, ptr noundef %4) #12
  %42 = icmp slt i32 %41, 0
  br i1 %42, label %43, label %44

43:                                               ; preds = %23
  br label %45

44:                                               ; preds = %23
  store i32 1, ptr @rawmode, align 4, !tbaa !4
  store i32 0, ptr %2, align 4
  store i32 1, ptr %5, align 4
  br label %47

45:                                               ; preds = %43, %22, %12
  %46 = call ptr @__errno_location() #16
  store i32 25, ptr %46, align 4, !tbaa !4
  store i32 -1, ptr %2, align 4
  store i32 1, ptr %5, align 4
  br label %47

47:                                               ; preds = %45, %44
  call void @llvm.lifetime.end.p0(i64 60, ptr %4) #12
  br label %48

48:                                               ; preds = %47, %8
  %49 = load i32, ptr %2, align 4
  ret i32 %49
}