; Function Attrs: nounwind uwtable
define internal fastcc range(i32 -1, 1) i32 @enableRawMode() unnamed_addr #10 {
  %1 = alloca %struct.termios, align 4
  %2 = tail call ptr @getenv(ptr noundef nonnull @.str.7) #24
  %.not = icmp eq ptr %2, null
  br i1 %.not, label %3, label %31

3:                                                ; preds = %0
  call void @llvm.lifetime.start.p0(i64 60, ptr nonnull %1) #24
  %4 = tail call i32 @isatty(i32 noundef 0) #24
  %.not3 = icmp eq i32 %4, 0
  br i1 %.not3, label %28, label %5

5:                                                ; preds = %3
  %.b = load i1, ptr @atexit_registered, align 4
  br i1 %.b, label %8, label %6

6:                                                ; preds = %5
  %7 = tail call i32 @atexit(ptr noundef nonnull @linenoiseAtExit) #24
  store i1 true, ptr @atexit_registered, align 4
  br label %8

8:                                                ; preds = %6, %5
  %9 = tail call i32 @tcgetattr(i32 noundef 0, ptr noundef nonnull @orig_termios) #24
  %10 = icmp eq i32 %9, -1
  br i1 %10, label %28, label %11

11:                                               ; preds = %8
  call void @llvm.memcpy.p0.p0.i64(ptr noundef nonnull align 4 dereferenceable(60) %1, ptr noundef nonnull align 4 dereferenceable(60) @orig_termios, i64 60, i1 false), !tbaa.struct !50
  %12 = load i32, ptr %1, align 4, !tbaa !51
  %13 = and i32 %12, -1331
  store i32 %13, ptr %1, align 4, !tbaa !51
  %14 = getelementptr inbounds nuw i8, ptr %1, i64 4
  %15 = load i32, ptr %14, align 4, !tbaa !53
  %16 = and i32 %15, -2
  store i32 %16, ptr %14, align 4, !tbaa !53
  %17 = getelementptr inbounds nuw i8, ptr %1, i64 8
  %18 = load i32, ptr %17, align 4, !tbaa !54
  %19 = or i32 %18, 48
  store i32 %19, ptr %17, align 4, !tbaa !54
  %20 = getelementptr inbounds nuw i8, ptr %1, i64 12
  %21 = load i32, ptr %20, align 4, !tbaa !55
  %22 = and i32 %21, -32780
  store i32 %22, ptr %20, align 4, !tbaa !55
  %23 = getelementptr inbounds nuw i8, ptr %1, i64 23
  store i8 1, ptr %23, align 1, !tbaa !21
  %24 = getelementptr inbounds nuw i8, ptr %1, i64 22
  store i8 0, ptr %24, align 2, !tbaa !21
  %25 = call i32 @tcsetattr(i32 noundef 0, i32 noundef 0, ptr noundef nonnull %1) #24
  %26 = icmp slt i32 %25, 0
  br i1 %26, label %28, label %27

27:                                               ; preds = %11
  store i1 true, ptr @rawmode, align 4
  br label %30

28:                                               ; preds = %11, %8, %3
  %29 = tail call ptr @__errno_location() #29
  store i32 25, ptr %29, align 4, !tbaa !4
  br label %30

30:                                               ; preds = %28, %27
  %.1 = phi i32 [ -1, %28 ], [ 0, %27 ]
  call void @llvm.lifetime.end.p0(i64 60, ptr nonnull %1) #24
  br label %31

31:                                               ; preds = %0, %30
  %.0 = phi i32 [ %.1, %30 ], [ 0, %0 ]
  ret i32 %.0
}